target datalayout = "e-m:e-p270:32:32-p271:32:32-p272:64:64-i64:64-i128:128-f80:128-n8:16:32:64-S128"
target triple = "x86_64-pc-linux-gnu"

%struct.__va_list_tag = type { i32, i32, ptr, ptr }

@VERBOSITY = global i32 0, align 4
@.str = private unnamed_addr constant [1 x i8] zeroinitializer, align 1
@ON_LINE = internal global i8 0, align 1
@stdout = external global ptr, align 8
@.str.17 = private unnamed_addr constant [5 x i8] c"%-*s\00", align 1
@INDENT_LEVEL = internal global i32 0, align 4
@HANGING_OUTPUT = internal global i8 0, align 1
@GLOBAL_PRINT_COUNT = internal global i32 0, align 4
@.str.76 = private unnamed_addr constant [4 x i8] c" {\0A\00", align 1
@.str.79 = private unnamed_addr constant [2 x i8] c"v\00", align 1

; Function Attrs: nounwind uwtable
define internal void @go_offline_with_marker(ptr noundef %0) #0 {
  %2 = alloca ptr, align 8
  %3 = alloca i8, align 1
  store ptr %0, ptr %2, align 8, !tbaa !15
  call void @llvm.lifetime.start.p0(i64 1, ptr %3) #12
  %4 = load i8, ptr @ON_LINE, align 1, !tbaa !20
  store i8 %4, ptr %3, align 1, !tbaa !20
  %5 = load i8, ptr @ON_LINE, align 1, !tbaa !20
  %6 = icmp ne i8 %5, 0
  br i1 %6, label %7, label %8

7:                                                ; preds = %1
  call void (ptr, ...) @log_testinfo(ptr noundef @.str.76)
  store i8 0, ptr @ON_LINE, align 1, !tbaa !20
  br label %8

8:                                                ; preds = %7, %1
  %9 = load i8, ptr @HANGING_OUTPUT, align 1, !tbaa !20
  %10 = icmp ne i8 %9, 0
  br i1 %10, label %11, label %15

11:                                               ; preds = %8
  %12 = load i8, ptr %3, align 1, !tbaa !20
  %13 = sext i8 %12 to i32
  %14 = icmp ne i32 %13, 0
  br i1 %14, label %15, label %23

15:                                               ; preds = %11, %8
  %16 = load ptr, ptr %2, align 8, !tbaa !15
  %17 = icmp ne ptr %16, null
  br i1 %17, label %18, label %22

18:                                               ; preds = %15
  %19 = load ptr, ptr %2, align 8, !tbaa !15
  %20 = load ptr, ptr @stdout, align 8, !tbaa !27
  %21 = call i32 @fputs(ptr noundef %19, ptr noundef %20)
  br label %22

22:                                               ; preds = %18, %15
  br label %23

23:                                               ; preds = %22, %11
  call void @llvm.lifetime.end.p0(i64 1, ptr %3) #12
  ret void
}

; Function Attrs: nounwind uwtable
define internal void @first_line_verbose() #0 {
  call void @go_offline_with_marker(ptr noundef @.str.79)
  ret void
}

; Function Attrs: nounwind uwtable
define internal void @vlog_verbose(ptr noundef %0, ptr noundef %1, ptr noundef %2) #0 {
  %4 = alloca ptr, align 8
  %5 = alloca ptr, align 8
  %6 = alloca ptr, align 8
  store ptr %0, ptr %4, align 8, !tbaa !15
  store ptr %1, ptr %5, align 8, !tbaa !15
  store ptr %2, ptr %6, align 8, !tbaa !36
  %7 = load i32, ptr @VERBOSITY, align 4, !tbaa !18
  %8 = icmp eq i32 %7, 0
  br i1 %8, label %9, label %10

9:                                                ; preds = %3
  br label %44

10:                                               ; preds = %3
  call void @first_line_verbose()
  %11 = load ptr, ptr @stdout, align 8, !tbaa !27
  %12 = load i32, ptr @INDENT_LEVEL, align 4, !tbaa !18
  %13 = call i32 (ptr, ptr, ...) @fprintf(ptr noundef %11, ptr noundef @.str.17, i32 noundef %12, ptr noundef @.str) #12
  %14 = load ptr, ptr %4, align 8, !tbaa !15
  %15 = icmp ne ptr %14, null
  br i1 %15, label %16, label %20

16:                                               ; preds = %10
  %17 = load ptr, ptr %4, align 8, !tbaa !15
  %18 = load ptr, ptr @stdout, align 8, !tbaa !27
  %19 = call i32 @fputs(ptr noundef %17, ptr noundef %18)
  br label %20

20:                                               ; preds = %16, %10
  %21 = load ptr, ptr @stdout, align 8, !tbaa !27
  %22 = load ptr, ptr %5, align 8, !tbaa !15
  %23 = load ptr, ptr %6, align 8, !tbaa !36
  %24 = call i32 @vfprintf(ptr noundef %21, ptr noundef %22, ptr noundef %23) #12
  %25 = load ptr, ptr @stdout, align 8, !tbaa !27
  %26 = call i32 @fflush(ptr noundef %25)
  %27 = load i32, ptr @GLOBAL_PRINT_COUNT, align 4, !tbaa !18
  %28 = add nsw i32 %27, 1
  store i32 %28, ptr @GLOBAL_PRINT_COUNT, align 4, !tbaa !18
  %29 = load ptr, ptr %5, align 8, !tbaa !15
  %30 = load i8, ptr %29, align 1, !tbaa !20
  %31 = sext i8 %30 to i32
  %32 = icmp eq i32 %31, 0
  br i1 %32, label %42, label %33

33:                                               ; preds = %20
  %34 = load ptr, ptr %5, align 8, !tbaa !15
  %35 = load ptr, ptr %5, align 8, !tbaa !15
  %36 = call i64 @strlen(ptr noundef %35) #14
  %37 = sub i64 %36, 1
  %38 = getelementptr inbounds nuw i8, ptr %34, i64 %37
  %39 = load i8, ptr %38, align 1, !tbaa !20
  %40 = sext i8 %39 to i32
  %41 = icmp ne i32 %40, 10
  br i1 %41, label %42, label %43

42:                                               ; preds = %33, %20
  store i8 1, ptr @HANGING_OUTPUT, align 1, !tbaa !20
  br label %44

43:                                               ; preds = %33
  store i8 0, ptr @HANGING_OUTPUT, align 1, !tbaa !20
  br label %44

44:                                               ; preds = %9, %43, %42
  ret void
}

; Function Attrs: nounwind uwtable
define void @log_verbose(ptr noundef %0, ...) #0 {
  %2 = alloca ptr, align 8
  %3 = alloca [1 x %struct.__va_list_tag], align 16
  store ptr %0, ptr %2, align 8, !tbaa !15
  call void @llvm.lifetime.start.p0(i64 24, ptr %3) #12
  %4 = getelementptr inbounds [1 x %struct.__va_list_tag], ptr %3, i64 0, i64 0
  call void @llvm.va_start.p0(ptr %4)
  %5 = load ptr, ptr %2, align 8, !tbaa !15
  %6 = getelementptr inbounds [1 x %struct.__va_list_tag], ptr %3, i64 0, i64 0
  call void @vlog_verbose(ptr noundef null, ptr noundef %5, ptr noundef %6)
  %7 = getelementptr inbounds [1 x %struct.__va_list_tag], ptr %3, i64 0, i64 0
  call void @llvm.va_end.p0(ptr %7)
  call void @llvm.lifetime.end.p0(i64 24, ptr %3) #12
  ret void
}