; Function Attrs: nofree nounwind uwtable
define void @log_verbose(ptr noundef readonly captures(none) %0, ...) local_unnamed_addr #2 {
  %2 = alloca [1 x %struct.__va_list_tag], align 16
  call void @llvm.lifetime.start.p0(i64 24, ptr nonnull %2) #23
  call void @llvm.va_start.p0(ptr nonnull %2)
  %3 = load i32, ptr @VERBOSITY, align 4, !tbaa !18
  %4 = icmp eq i32 %3, 0
  br i1 %4, label %vlog_verbose.exit, label %5

5:                                                ; preds = %1
  %.b.i.i.i = load i1, ptr @ON_LINE, align 1
  br i1 %.b.i.i.i, label %.thread.i.i, label %6

.thread.i.i:                                      ; preds = %5
  call void (ptr, ...) @log_testinfo(ptr noundef nonnull @.str.76)
  store i1 false, ptr @ON_LINE, align 1
  br label %7

6:                                                ; preds = %5
  %.b6.i.i.i = load i1, ptr @HANGING_OUTPUT, align 1
  br i1 %.b6.i.i.i, label %first_line_verbose.exit.i, label %7

7:                                                ; preds = %6, %.thread.i.i
  %8 = load ptr, ptr @stdout, align 8, !tbaa !16
  %fputc.i.i = call i32 @fputc(i32 118, ptr %8)
  br label %first_line_verbose.exit.i

first_line_verbose.exit.i:                        ; preds = %7, %6
  %9 = load ptr, ptr @stdout, align 8, !tbaa !16
  %10 = load i32, ptr @INDENT_LEVEL, align 4, !tbaa !18
  %11 = call i32 (ptr, ptr, ...) @fprintf(ptr noundef %9, ptr noundef nonnull @.str.17, i32 noundef %10, ptr noundef nonnull @.str) #23
  %12 = load ptr, ptr @stdout, align 8, !tbaa !16
  %13 = call i32 @vfprintf(ptr noundef %12, ptr noundef readonly %0, ptr noundef nonnull %2) #23
  %14 = load ptr, ptr @stdout, align 8, !tbaa !16
  %15 = call i32 @fflush(ptr noundef %14)
  %16 = load i32, ptr @GLOBAL_PRINT_COUNT, align 4, !tbaa !18
  %17 = add nsw i32 %16, 1
  store i32 %17, ptr @GLOBAL_PRINT_COUNT, align 4, !tbaa !18
  %18 = load i8, ptr %0, align 1, !tbaa !11
  %19 = icmp eq i8 %18, 0
  br i1 %19, label %.sink.split.i, label %20

20:                                               ; preds = %first_line_verbose.exit.i
  %21 = call i64 @strlen(ptr noundef nonnull readonly dereferenceable(1) %0) #25
  %22 = getelementptr i8, ptr %0, i64 %21
  %23 = getelementptr i8, ptr %22, i64 -1
  %24 = load i8, ptr %23, align 1, !tbaa !11
  %.not.i = icmp ne i8 %24, 10
  br label %.sink.split.i

.sink.split.i:                                    ; preds = %20, %first_line_verbose.exit.i
  %.sink.i = phi i1 [ true, %first_line_verbose.exit.i ], [ %.not.i, %20 ]
  store i1 %.sink.i, ptr @HANGING_OUTPUT, align 1
  br label %vlog_verbose.exit

vlog_verbose.exit:                                ; preds = %1, %.sink.split.i
  call void @llvm.va_end.p0(ptr nonnull %2)
  call void @llvm.lifetime.end.p0(i64 24, ptr nonnull %2) #23
  ret void
}